; Function Attrs: mustprogress uwtable
define dso_local void @_ZN3net14QuicConnection11DiscoverMtuEv(ptr noundef nonnull align 8 dereferenceable(3372) %this) local_unnamed_addr #0 align 2 personality ptr @__gxx_personality_v0 {
entry:
  %mtu_discovery_target_ = getelementptr inbounds i8, ptr %this, i64 3312
  %0 = load i64, ptr %mtu_discovery_target_, align 8
  %packet_generator_.i = getelementptr inbounds i8, ptr %this, i64 2408
  %call.i = tail call noundef i64 @_ZNK3net19QuicPacketGenerator25GetCurrentMaxPacketLengthEv(ptr noundef nonnull align 8 dereferenceable(472) %packet_generator_.i)
  %cmp.not = icmp ugt i64 %0, %call.i
  br i1 %cmp.not, label %if.end, label %return

if.end:                                           ; preds = %entry
  %packets_between_mtu_probes_ = getelementptr inbounds i8, ptr %this, i64 3328
  %1 = load i64, ptr %packets_between_mtu_probes_, align 8
  %mul = shl i64 %1, 1
  store i64 %mul, ptr %packets_between_mtu_probes_, align 8
  %packet_number_of_last_sent_packet_ = getelementptr inbounds i8, ptr %this, i64 3184
  %2 = load i64, ptr %packet_number_of_last_sent_packet_, align 8
  %add = or disjoint i64 %mul, 1
  %add3 = add i64 %add, %2
  %next_mtu_probe_at_ = getelementptr inbounds i8, ptr %this, i64 3336
  store i64 %add3, ptr %next_mtu_probe_at_, align 8
  %mtu_probe_count_ = getelementptr inbounds i8, ptr %this, i64 3320
  %3 = load i64, ptr %mtu_probe_count_, align 8
  %inc = add i64 %3, 1
  store i64 %inc, ptr %mtu_probe_count_, align 8
  %4 = load i64, ptr %mtu_discovery_target_, align 8
  tail call void @_ZN3net19QuicPacketGenerator26GenerateMtuDiscoveryPacketEmPNS_24QuicAckListenerInterfaceE(ptr noundef nonnull align 8 dereferenceable(472) %packet_generator_.i, i64 noundef %4, ptr noundef null)
  br label %return

return:                                           ; preds = %entry, %if.end
  ret void
}